; Listing generated by Microsoft (R) Optimizing Compiler Version 19.44.35217.0 

include listing.inc

INCLUDELIB LIBCMT
INCLUDELIB OLDNAMES

PUBLIC	__local_stdio_printf_options
PUBLIC	_vfprintf_l
PUBLIC	printf
PUBLIC	testFunc
PUBLIC	getDateInstance
PUBLIC	main
EXTRN	__acrt_iob_func:PROC
EXTRN	__stdio_common_vfprintf:PROC
EXTRN	__GSHandlerCheck:PROC
EXTRN	__security_check_cookie:PROC
EXTRN	__security_cookie:QWORD
_DATA	SEGMENT
COMM	?_OptionsStorage@?1??__local_stdio_printf_options@@9@9:QWORD							; `__local_stdio_printf_options'::`2'::_OptionsStorage
_DATA	ENDS
;	COMDAT pdata
pdata	SEGMENT
$pdata$_vfprintf_l DD imagerel $LN3
	DD	imagerel $LN3+67
	DD	imagerel $unwind$_vfprintf_l
pdata	ENDS
;	COMDAT pdata
pdata	SEGMENT
$pdata$printf DD imagerel $LN3
	DD	imagerel $LN3+87
	DD	imagerel $unwind$printf
pdata	ENDS
pdata	SEGMENT
$pdata$testFunc DD imagerel $LN3
	DD	imagerel $LN3+49
	DD	imagerel $unwind$testFunc
$pdata$getDateInstance DD imagerel $LN3
	DD	imagerel $LN3+107
	DD	imagerel $unwind$getDateInstance
$pdata$main DD	imagerel $LN3
	DD	imagerel $LN3+137
	DD	imagerel $unwind$main
pdata	ENDS
_DATA	SEGMENT
$SG9929	DB	'myDate:%d/%d/%d', 0aH, 00H
	ORG $+7
$SG9939	DB	'%d, %d, %d', 0aH, 00H
_DATA	ENDS
voltbl	SEGMENT
_volmd	DD	0ffffffffH
	DDSymXIndex: 	FLAT:main
	DD	011H
	DD	075H
_volmd	DD	0ffffffffH
	DDSymXIndex: 	FLAT:getDateInstance
	DD	023H
	DD	057H
voltbl	ENDS
xdata	SEGMENT
$unwind$testFunc DD 011101H
	DD	04211H
$unwind$getDateInstance DD 032819H
	DD	070154219H
	DD	06014H
	DD	imagerel __GSHandlerCheck
	DD	010H
$unwind$main DD	031619H
	DD	07003a207H
	DD	06002H
	DD	imagerel __GSHandlerCheck
	DD	040H
xdata	ENDS
;	COMDAT xdata
xdata	SEGMENT
$unwind$printf DD 011801H
	DD	06218H
xdata	ENDS
;	COMDAT xdata
xdata	SEGMENT
$unwind$_vfprintf_l DD 011801H
	DD	06218H
xdata	ENDS
; Function compile flags: /Odtp
_TEXT	SEGMENT
$T1 = 32
myDate$ = 48
__$ArrayPad$ = 64
main	PROC
; File C:\Users\yoges\OneDrive\Documents\CPA\CPP\BATCH_25\SESSION-20\04-return-by-object.c
; Line 10
$LN3:
	push	rsi
	push	rdi
	sub	rsp, 88					; 00000058H
	mov	rax, QWORD PTR __security_cookie
	xor	rax, rsp
	mov	QWORD PTR __$ArrayPad$[rsp], rax
; Line 14
	mov	r8d, 300				; 0000012cH
	mov	edx, 200				; 000000c8H
	mov	ecx, 100				; 00000064H
	call	testFunc
	npad	1
; Line 16
	mov	r9d, 2025				; 000007e9H
	mov	r8d, 11
	mov	edx, 29
	lea	rcx, QWORD PTR $T1[rsp]
	call	getDateInstance
	lea	rcx, QWORD PTR myDate$[rsp]
	mov	rdi, rcx
	mov	rsi, rax
	mov	ecx, 12
	rep movsb
; Line 18
	mov	r9d, DWORD PTR myDate$[rsp+8]
	mov	r8d, DWORD PTR myDate$[rsp+4]
	mov	edx, DWORD PTR myDate$[rsp]
	lea	rcx, OFFSET FLAT:$SG9929
	call	printf
; Line 21
	xor	eax, eax
; Line 22
	mov	rcx, QWORD PTR __$ArrayPad$[rsp]
	xor	rcx, rsp
	call	__security_check_cookie
	add	rsp, 88					; 00000058H
	pop	rdi
	pop	rsi
	ret	0
main	ENDP
_TEXT	ENDS
; Function compile flags: /Odtp
_TEXT	SEGMENT
myInstance$ = 0
__$ArrayPad$ = 16
__$ReturnAddress$ = 64
dd$ = 72
mm$ = 80
yy$ = 88
getDateInstance PROC
; File C:\Users\yoges\OneDrive\Documents\CPA\CPP\BATCH_25\SESSION-20\04-return-by-object.c
; Line 25
$LN3:
	mov	DWORD PTR [rsp+32], r9d
	mov	DWORD PTR [rsp+24], r8d
	mov	DWORD PTR [rsp+16], edx
	mov	QWORD PTR [rsp+8], rcx
	push	rsi
	push	rdi
	sub	rsp, 40					; 00000028H
	mov	rax, QWORD PTR __security_cookie
	xor	rax, rsp
	mov	QWORD PTR __$ArrayPad$[rsp], rax
; Line 36
	mov	DWORD PTR myInstance$[rsp], 29
; Line 37
	mov	DWORD PTR myInstance$[rsp+4], 11
; Line 38
	mov	DWORD PTR myInstance$[rsp+8], 2025	; 000007e9H
; Line 40
	lea	rax, QWORD PTR myInstance$[rsp]
	mov	rdi, QWORD PTR __$ReturnAddress$[rsp]
	mov	rsi, rax
	mov	ecx, 12
	rep movsb
	mov	rax, QWORD PTR __$ReturnAddress$[rsp]
; Line 41
	mov	rcx, QWORD PTR __$ArrayPad$[rsp]
	xor	rcx, rsp
	call	__security_check_cookie
	add	rsp, 40					; 00000028H
	pop	rdi
	pop	rsi
	ret	0
getDateInstance ENDP
_TEXT	ENDS
; Function compile flags: /Odtp
_TEXT	SEGMENT
aa$ = 48
bb$ = 56
cc$ = 64
testFunc PROC
; File C:\Users\yoges\OneDrive\Documents\CPA\CPP\BATCH_25\SESSION-20\04-return-by-object.c
; Line 44
$LN3:
	mov	DWORD PTR [rsp+24], r8d
	mov	DWORD PTR [rsp+16], edx
	mov	DWORD PTR [rsp+8], ecx
	sub	rsp, 40					; 00000028H
; Line 45
	mov	r9d, DWORD PTR cc$[rsp]
	mov	r8d, DWORD PTR bb$[rsp]
	mov	edx, DWORD PTR aa$[rsp]
	lea	rcx, OFFSET FLAT:$SG9939
	call	printf
	npad	1
; Line 46
	add	rsp, 40					; 00000028H
	ret	0
testFunc ENDP
_TEXT	ENDS
; Function compile flags: /Odtp
;	COMDAT printf
_TEXT	SEGMENT
_Result$ = 32
_ArgList$ = 40
_Format$ = 64
printf	PROC						; COMDAT
; File C:\Program Files (x86)\Windows Kits\10\include\10.0.26100.0\ucrt\stdio.h
; Line 956
$LN3:
	mov	QWORD PTR [rsp+8], rcx
	mov	QWORD PTR [rsp+16], rdx
	mov	QWORD PTR [rsp+24], r8
	mov	QWORD PTR [rsp+32], r9
	sub	rsp, 56					; 00000038H
; Line 959
	lea	rax, QWORD PTR _Format$[rsp+8]
	mov	QWORD PTR _ArgList$[rsp], rax
; Line 960
	mov	ecx, 1
	call	__acrt_iob_func
	mov	r9, QWORD PTR _ArgList$[rsp]
	xor	r8d, r8d
	mov	rdx, QWORD PTR _Format$[rsp]
	mov	rcx, rax
	call	_vfprintf_l
	mov	DWORD PTR _Result$[rsp], eax
; Line 961
	mov	QWORD PTR _ArgList$[rsp], 0
; Line 962
	mov	eax, DWORD PTR _Result$[rsp]
; Line 963
	add	rsp, 56					; 00000038H
	ret	0
printf	ENDP
_TEXT	ENDS
; Function compile flags: /Odtp
;	COMDAT _vfprintf_l
_TEXT	SEGMENT
_Stream$ = 64
_Format$ = 72
_Locale$ = 80
_ArgList$ = 88
_vfprintf_l PROC					; COMDAT
; File C:\Program Files (x86)\Windows Kits\10\include\10.0.26100.0\ucrt\stdio.h
; Line 644
$LN3:
	mov	QWORD PTR [rsp+32], r9
	mov	QWORD PTR [rsp+24], r8
	mov	QWORD PTR [rsp+16], rdx
	mov	QWORD PTR [rsp+8], rcx
	sub	rsp, 56					; 00000038H
; Line 645
	call	__local_stdio_printf_options
	mov	rcx, QWORD PTR _ArgList$[rsp]
	mov	QWORD PTR [rsp+32], rcx
	mov	r9, QWORD PTR _Locale$[rsp]
	mov	r8, QWORD PTR _Format$[rsp]
	mov	rdx, QWORD PTR _Stream$[rsp]
	mov	rcx, QWORD PTR [rax]
	call	__stdio_common_vfprintf
; Line 646
	add	rsp, 56					; 00000038H
	ret	0
_vfprintf_l ENDP
_TEXT	ENDS
; Function compile flags: /Odtp
;	COMDAT __local_stdio_printf_options
_TEXT	SEGMENT
__local_stdio_printf_options PROC			; COMDAT
; File C:\Program Files (x86)\Windows Kits\10\include\10.0.26100.0\ucrt\corecrt_stdio_config.h
; Line 92
	lea	rax, OFFSET FLAT:?_OptionsStorage@?1??__local_stdio_printf_options@@9@9 ; `__local_stdio_printf_options'::`2'::_OptionsStorage
; Line 93
	ret	0
__local_stdio_printf_options ENDP
_TEXT	ENDS
END
